; Function Attrs: nounwind uwtable
define ptr @wc_strdup_ex(ptr noundef readonly captures(address_is_null) %0, i32 noundef %1) local_unnamed_addr #2 {
  %.not = icmp eq ptr %0, null
  br i1 %.not, label %9, label %3

3:                                                ; preds = %2
  %4 = tail call i64 @strlen(ptr noundef nonnull dereferenceable(1) %0) #17
  %5 = add i64 %4, 1
  %6 = and i64 %5, 4294967295
  %7 = tail call ptr @wolfSSL_Malloc(i64 noundef %6) #16
  %.not9 = icmp eq ptr %7, null
  br i1 %.not9, label %9, label %8

8:                                                ; preds = %3
  tail call void @llvm.memcpy.p0.p0.i64(ptr nonnull align 1 %7, ptr nonnull align 1 %0, i64 %6, i1 false)
  br label %9

9:                                                ; preds = %3, %8, %2
  %.0 = phi ptr [ %7, %8 ], [ null, %3 ], [ null, %2 ]
  ret ptr %.0
}